Certificate:
    Data:
        Version: 3 (0x2)
        Serial Number: 1 (0x1)
        Signature Algorithm: sha1WithRSAEncryption
        Issuer: CN=RCS Certification Authority, O=HT srl
        Validity
            Not Before: Jul  9 11:44:59 2012 GMT
            Not After : Jul  7 11:44:59 2022 GMT
        Subject: CN=server
        Subject Public Key Info:
            Public Key Algorithm: rsaEncryption
            RSA Public Key: (1024 bit)
                Modulus (1024 bit):
                    00:ca:a4:ed:4a:cb:b7:c8:ef:fc:2c:93:aa:b9:48:
                    b1:2a:8a:b3:5f:af:94:ec:5b:5d:bc:da:8b:f6:4d:
                    c8:5f:e9:62:07:7b:27:e1:48:50:c9:6f:89:f1:f4:
                    d0:37:87:6f:75:b8:ed:85:c4:0a:d5:b7:3c:19:13:
                    20:65:2a:5a:e1:06:62:d3:68:e6:47:26:95:85:67:
                    75:0b:38:98:dc:ac:b8:21:f1:9d:ab:31:0b:2c:5c:
                    60:fc:3b:b0:3f:7b:26:36:9d:55:64:cb:ad:06:a9:
                    f8:10:0d:e0:73:36:4d:11:9b:43:e0:d8:bc:70:c8:
                    90:c3:71:20:77:9a:79:de:63
                Exponent: 65537 (0x10001)
        X509v3 extensions:
            X509v3 Basic Constraints: 
                CA:FALSE
            X509v3 Subject Key Identifier: 
                B9:6A:EA:3D:E7:65:DF:B9:11:62:3D:DC:F3:34:79:DE:B3:28:BB:FF
            X509v3 Authority Key Identifier: 
                keyid:BF:A3:AC:6F:A3:17:80:4B:22:8D:6F:8E:62:F9:EE:03:F0:8F:8D:91
                DirName:/CN=RCS Certification Authority/O=HT srl
                serial:B0:92:0A:3F:2D:B3:D6:3D

            X509v3 Extended Key Usage: 
                TLS Web Client Authentication
            X509v3 Key Usage: 
                Digital Signature
    Signature Algorithm: sha1WithRSAEncryption
        f6:ae:bb:57:44:ef:05:b3:97:ce:bd:e8:50:fc:f2:1c:39:29:
        fb:b7:e8:d3:f3:6e:13:97:1d:fc:99:f7:f7:78:9f:b8:7e:21:
        76:47:1d:05:34:c0:e9:4e:3e:78:ae:f8:e9:f4:f5:49:88:fc:
        20:d3:4d:d2:7c:b0:a1:1a:a3:a6:88:45:12:14:88:9f:c5:e5:
        21:75:16:bd:c3:7a:1a:2b:1b:56:19:cc:e1:09:ad:39:f4:ed:
        11:40:44:97:70:e9:43:1c:9f:cb:ee:5e:f7:d2:05:d3:8a:f2:
        13:72:e7:87:56:e8:28:77:51:b8:f3:f7:a4:9e:0a:24:bd:14:
        57:f9
-----BEGIN CERTIFICATE-----
MIICdzCCAeCgAwIBAgIBATANBgkqhkiG9w0BAQUFADA3MSQwIgYDVQQDExtSQ1Mg
Q2VydGlmaWNhdGlvbiBBdXRob3JpdHkxDzANBgNVBAoTBkhUIHNybDAeFw0xMjA3
MDkxMTQ0NTlaFw0yMjA3MDcxMTQ0NTlaMBExDzANBgNVBAMTBnNlcnZlcjCBnzAN
BgkqhkiG9w0BAQEFAAOBjQAwgYkCgYEAyqTtSsu3yO/8LJOquUixKoqzX6+U7Ftd
vNqL9k3IX+liB3sn4UhQyW+J8fTQN4dvdbjthcQK1bc8GRMgZSpa4QZi02jmRyaV
hWd1CziY3Ky4IfGdqzELLFxg/DuwP3smNp1VZMutBqn4EA3gczZNEZtD4Ni8cMiQ
w3Egd5p53mMCAwEAAaOBuDCBtTAJBgNVHRMEAjAAMB0GA1UdDgQWBBS5auo952Xf
uRFiPdzzNHnesyi7/zBnBgNVHSMEYDBegBS/o6xvoxeASyKNb45i+e4D8I+NkaE7
pDkwNzEkMCIGA1UEAxMbUkNTIENlcnRpZmljYXRpb24gQXV0aG9yaXR5MQ8wDQYD
VQQKEwZIVCBzcmyCCQCwkgo/LbPWPTATBgNVHSUEDDAKBggrBgEFBQcDAjALBgNV
HQ8EBAMCB4AwDQYJKoZIhvcNAQEFBQADgYEA9q67V0TvBbOXzr3oUPzyHDkp+7fo
0/NuE5cd/Jn393ifuH4hdkcdBTTA6U4+eK746fT1SYj8INNN0nywoRqjpohFEhSI
n8XlIXUWvcN6GisbVhnM4QmtOfTtEUBEl3DpQxyfy+5e99IF04ryE3Lnh1boKHdR
uPP3pJ4KJL0UV/k=
-----END CERTIFICATE-----
-----BEGIN RSA PRIVATE KEY-----
MIICXgIBAAKBgQDKpO1Ky7fI7/wsk6q5SLEqirNfr5TsW1282ov2Tchf6WIHeyfh
SFDJb4nx9NA3h291uO2FxArVtzwZEyBlKlrhBmLTaOZHJpWFZ3ULOJjcrLgh8Z2r
MQssXGD8O7A/eyY2nVVky60GqfgQDeBzNk0Rm0Pg2LxwyJDDcSB3mnneYwIDAQAB
AoGAIMwmt7dXDIeC6fgQZqKUQg1m0LLLSKHU/w7kHj4ikxtjyVAueTDKGoAZ9HYq
CQK7kHMYxlCfbE2WxXwp/xWm1YCHdBWZ5W4bF05+b+wDULmBZPfImCczFnlMRlcj
eFj0NU1lrN3GhdtXjmGTF2DeDJ47k+8ArbwCE8E62fcmHnkCQQD/7Q4nz7CcE17+
j2JS/kblYTHogRc0i83AsC7QdBSv4wDtCHHFkDQw2E8edslKeG8Lg9MKiFjf5Gnu
Ph8PEmQfAkEAyrPtcA4wNWVSqMO3RT7B+WSJ0c4FKQuBWm+GpSO06IyMwM85RR6k
Ix787oIjReRiKZsr76PL6lGn8U+yZi+dPQJBAKEwcDL455ZVyQXxzw7QolyEbAex
jqkEyLFtBf86rXDeO84O/IFfQs/k3WgljsA9vEr3WyuOFtPlLCbmr28xuScCQQDG
bz/Iy8r76rXxyq82VYqU94xH3JSGquG1w6ofLgZjBXyhH/vjo2xxiVt4reOT/1Dt
hB+N2F6+g7OR80Ak8wXNAkEAg3r/H+Uz/xTPgwIvlgKJeWkXqIoD32xuJAvkg3IT
sUvUIxN8ncj5UOA4vU88pFKA+1V+XZjmp4XgpuvOjlMdbg==
-----END RSA PRIVATE KEY-----
-----BEGIN CERTIFICATE-----
MIIChjCCAe+gAwIBAgIJALCSCj8ts9Y9MA0GCSqGSIb3DQEBBQUAMDcxJDAiBgNV
BAMTG1JDUyBDZXJ0aWZpY2F0aW9uIEF1dGhvcml0eTEPMA0GA1UEChMGSFQgc3Js
MB4XDTEyMDUzMDA3MDAyMFoXDTIyMDUyODA3MDAyMFowNzEkMCIGA1UEAxMbUkNT
IENlcnRpZmljYXRpb24gQXV0aG9yaXR5MQ8wDQYDVQQKEwZIVCBzcmwwgZ8wDQYJ
KoZIhvcNAQEBBQADgY0AMIGJAoGBAPpobOlvf2sqqRnz+Tj+hOw2DEpFter8Eq2e
CrgSHMGIUfXaBM9G22ASrqEJPyvddVt5ysOptfjRY76YxfejKSZl4plrAxom6NpW
zp0tcreXtawhsCL4QhotI97K8oqjj1kOK/87RABmnphxRSlWZlTUBL1Z+IQX2aFi
ljVGokxlAgMBAAGjgZkwgZYwDAYDVR0TBAUwAwEB/zAdBgNVHQ4EFgQUv6Osb6MX
gEsijW+OYvnuA/CPjZEwZwYDVR0jBGAwXoAUv6Osb6MXgEsijW+OYvnuA/CPjZGh
O6Q5MDcxJDAiBgNVBAMTG1JDUyBDZXJ0aWZpY2F0aW9uIEF1dGhvcml0eTEPMA0G
A1UEChMGSFQgc3JsggkAsJIKPy2z1j0wDQYJKoZIhvcNAQEFBQADgYEAipVrdoPn
vpebKnk/LGx+7okDWJlP67PSiQarmkM6zngU7HDIQi04Xx9TukK4J8JBLaWPpt0T
8bcHo8PUTlfFJviW08tCp+FqHs9CB9DUFTI01PUFvtkxZLdNXq/+SK4ls3gf6XlE
XfDDMnHkRAHkgZE79THOnwEH0Sb5y+yK/Tg=
-----END CERTIFICATE-----
